target datalayout = "e-m:e-p270:32:32-p271:32:32-p272:64:64-i64:64-i128:128-f80:128-n8:16:32:64-S128"
target triple = "x86_64-pc-linux-gnu"

%struct.Ivy_Obj_t_ = type { i32, i32, i32, i32, ptr, ptr, ptr, ptr, ptr, ptr, ptr, ptr }
%struct.Ivy_FraigMan_t_ = type { ptr, i64, i64, ptr, ptr, i32, ptr, ptr, i32, ptr, ptr, %struct.Ivy_FraigList_t_, %struct.Ivy_FraigList_t_, i32, ptr, i32, ptr, ptr, i32, i32, i32, i32, i32, i32, i32, i32, i32, i32, i32, i32, i32, i64, i64, i64, i64, i64, i64, i64, i64, i64, i64 }
%struct.Ivy_FraigList_t_ = type { ptr, ptr, i32 }
%struct.Vec_Ptr_t_ = type { i32, i32, ptr }

; Function Attrs: inlinehint nounwind uwtable
define internal void @Vec_PtrGrow(ptr noundef %0, i32 noundef %1) #4 {
  %3 = alloca ptr, align 8
  %4 = alloca i32, align 4
  store ptr %0, ptr %3, align 8, !tbaa !130
  store i32 %1, ptr %4, align 4, !tbaa !44
  %5 = load ptr, ptr %3, align 8, !tbaa !130
  %6 = getelementptr inbounds nuw %struct.Vec_Ptr_t_, ptr %5, i32 0, i32 0
  %7 = load i32, ptr %6, align 8, !tbaa !211
  %8 = load i32, ptr %4, align 4, !tbaa !44
  %9 = icmp sge i32 %7, %8
  br i1 %9, label %10, label %11

10:                                               ; preds = %2
  br label %36

11:                                               ; preds = %2
  %12 = load ptr, ptr %3, align 8, !tbaa !130
  %13 = getelementptr inbounds nuw %struct.Vec_Ptr_t_, ptr %12, i32 0, i32 2
  %14 = load ptr, ptr %13, align 8, !tbaa !133
  %15 = icmp ne ptr %14, null
  br i1 %15, label %16, label %24

16:                                               ; preds = %11
  %17 = load ptr, ptr %3, align 8, !tbaa !130
  %18 = getelementptr inbounds nuw %struct.Vec_Ptr_t_, ptr %17, i32 0, i32 2
  %19 = load ptr, ptr %18, align 8, !tbaa !133
  %20 = load i32, ptr %4, align 4, !tbaa !44
  %21 = sext i32 %20 to i64
  %22 = mul i64 8, %21
  %23 = call ptr @realloc(ptr noundef %19, i64 noundef %22) #14
  br label %29

24:                                               ; preds = %11
  %25 = load i32, ptr %4, align 4, !tbaa !44
  %26 = sext i32 %25 to i64
  %27 = mul i64 8, %26
  %28 = call noalias ptr @malloc(i64 noundef %27) #13
  br label %29

29:                                               ; preds = %24, %16
  %30 = phi ptr [ %23, %16 ], [ %28, %24 ]
  %31 = load ptr, ptr %3, align 8, !tbaa !130
  %32 = getelementptr inbounds nuw %struct.Vec_Ptr_t_, ptr %31, i32 0, i32 2
  store ptr %30, ptr %32, align 8, !tbaa !133
  %33 = load i32, ptr %4, align 4, !tbaa !44
  %34 = load ptr, ptr %3, align 8, !tbaa !130
  %35 = getelementptr inbounds nuw %struct.Vec_Ptr_t_, ptr %34, i32 0, i32 0
  store i32 %33, ptr %35, align 8, !tbaa !211
  br label %36

36:                                               ; preds = %29, %10
  ret void
}

; Function Attrs: inlinehint nounwind uwtable
define internal void @Vec_PtrPush(ptr noundef %0, ptr noundef %1) #4 {
  %3 = alloca ptr, align 8
  %4 = alloca ptr, align 8
  store ptr %0, ptr %3, align 8, !tbaa !130
  store ptr %1, ptr %4, align 8, !tbaa !22
  %5 = load ptr, ptr %3, align 8, !tbaa !130
  %6 = getelementptr inbounds nuw %struct.Vec_Ptr_t_, ptr %5, i32 0, i32 1
  %7 = load i32, ptr %6, align 4, !tbaa !131
  %8 = load ptr, ptr %3, align 8, !tbaa !130
  %9 = getelementptr inbounds nuw %struct.Vec_Ptr_t_, ptr %8, i32 0, i32 0
  %10 = load i32, ptr %9, align 8, !tbaa !211
  %11 = icmp eq i32 %7, %10
  br i1 %11, label %12, label %26

12:                                               ; preds = %2
  %13 = load ptr, ptr %3, align 8, !tbaa !130
  %14 = getelementptr inbounds nuw %struct.Vec_Ptr_t_, ptr %13, i32 0, i32 0
  %15 = load i32, ptr %14, align 8, !tbaa !211
  %16 = icmp slt i32 %15, 16
  br i1 %16, label %17, label %19

17:                                               ; preds = %12
  %18 = load ptr, ptr %3, align 8, !tbaa !130
  call void @Vec_PtrGrow(ptr noundef %18, i32 noundef 16)
  br label %25

19:                                               ; preds = %12
  %20 = load ptr, ptr %3, align 8, !tbaa !130
  %21 = load ptr, ptr %3, align 8, !tbaa !130
  %22 = getelementptr inbounds nuw %struct.Vec_Ptr_t_, ptr %21, i32 0, i32 0
  %23 = load i32, ptr %22, align 8, !tbaa !211
  %24 = mul nsw i32 2, %23
  call void @Vec_PtrGrow(ptr noundef %20, i32 noundef %24)
  br label %25

25:                                               ; preds = %19, %17
  br label %26

26:                                               ; preds = %25, %2
  %27 = load ptr, ptr %4, align 8, !tbaa !22
  %28 = load ptr, ptr %3, align 8, !tbaa !130
  %29 = getelementptr inbounds nuw %struct.Vec_Ptr_t_, ptr %28, i32 0, i32 2
  %30 = load ptr, ptr %29, align 8, !tbaa !133
  %31 = load ptr, ptr %3, align 8, !tbaa !130
  %32 = getelementptr inbounds nuw %struct.Vec_Ptr_t_, ptr %31, i32 0, i32 1
  %33 = load i32, ptr %32, align 4, !tbaa !131
  %34 = add nsw i32 %33, 1
  store i32 %34, ptr %32, align 4, !tbaa !131
  %35 = sext i32 %33 to i64
  %36 = getelementptr inbounds ptr, ptr %30, i64 %35
  store ptr %27, ptr %36, align 8, !tbaa !22
  ret void
}

; Function Attrs: inlinehint nounwind uwtable
define internal i32 @Ivy_ObjIsNode(ptr noundef %0) #4 {
  %2 = alloca ptr, align 8
  store ptr %0, ptr %2, align 8, !tbaa !72
  %3 = load ptr, ptr %2, align 8, !tbaa !72
  %4 = getelementptr inbounds nuw %struct.Ivy_Obj_t_, ptr %3, i32 0, i32 2
  %5 = load i32, ptr %4, align 8
  %6 = and i32 %5, 15
  %7 = icmp eq i32 %6, 5
  br i1 %7, label %14, label %8

8:                                                ; preds = %1
  %9 = load ptr, ptr %2, align 8, !tbaa !72
  %10 = getelementptr inbounds nuw %struct.Ivy_Obj_t_, ptr %9, i32 0, i32 2
  %11 = load i32, ptr %10, align 8
  %12 = and i32 %11, 15
  %13 = icmp eq i32 %12, 6
  br label %14

14:                                               ; preds = %8, %1
  %15 = phi i1 [ true, %1 ], [ %13, %8 ]
  %16 = zext i1 %15 to i32
  ret i32 %16
}

; Function Attrs: inlinehint nounwind uwtable
define internal void @Ivy_ObjSetSatNum(ptr noundef %0, i32 noundef %1) #4 {
  %3 = alloca ptr, align 8
  %4 = alloca i32, align 4
  store ptr %0, ptr %3, align 8, !tbaa !72
  store i32 %1, ptr %4, align 4, !tbaa !44
  %5 = load i32, ptr %4, align 4, !tbaa !44
  %6 = sext i32 %5 to i64
  %7 = inttoptr i64 %6 to ptr
  %8 = load ptr, ptr %3, align 8, !tbaa !72
  %9 = getelementptr inbounds nuw %struct.Ivy_Obj_t_, ptr %8, i32 0, i32 7
  store ptr %7, ptr %9, align 8, !tbaa !79
  ret void
}

; Function Attrs: inlinehint nounwind uwtable
define internal i32 @Ivy_ObjIsConst1(ptr noundef %0) #4 {
  %2 = alloca ptr, align 8
  store ptr %0, ptr %2, align 8, !tbaa !72
  %3 = load ptr, ptr %2, align 8, !tbaa !72
  %4 = getelementptr inbounds nuw %struct.Ivy_Obj_t_, ptr %3, i32 0, i32 0
  %5 = load i32, ptr %4, align 8, !tbaa !180
  %6 = icmp eq i32 %5, 0
  %7 = zext i1 %6 to i32
  ret i32 %7
}

; Function Attrs: inlinehint nounwind uwtable
define internal i32 @Ivy_ObjSatNum(ptr noundef %0) #4 {
  %2 = alloca ptr, align 8
  store ptr %0, ptr %2, align 8, !tbaa !72
  %3 = load ptr, ptr %2, align 8, !tbaa !72
  %4 = getelementptr inbounds nuw %struct.Ivy_Obj_t_, ptr %3, i32 0, i32 7
  %5 = load ptr, ptr %4, align 8, !tbaa !79
  %6 = ptrtoint ptr %5 to i64
  %7 = trunc i64 %6 to i32
  ret i32 %7
}

; Function Attrs: nounwind uwtable
define void @Ivy_FraigObjAddToFrontier(ptr noundef %0, ptr noundef %1, ptr noundef %2) #0 {
  %4 = alloca ptr, align 8
  %5 = alloca ptr, align 8
  %6 = alloca ptr, align 8
  store ptr %0, ptr %4, align 8, !tbaa !60
  store ptr %1, ptr %5, align 8, !tbaa !72
  store ptr %2, ptr %6, align 8, !tbaa !130
  %7 = load ptr, ptr %5, align 8, !tbaa !72
  %8 = call i32 @Ivy_ObjSatNum(ptr noundef %7)
  %9 = icmp ne i32 %8, 0
  br i1 %9, label %10, label %11

10:                                               ; preds = %3
  br label %28

11:                                               ; preds = %3
  %12 = load ptr, ptr %5, align 8, !tbaa !72
  %13 = call i32 @Ivy_ObjIsConst1(ptr noundef %12)
  %14 = icmp ne i32 %13, 0
  br i1 %14, label %15, label %16

15:                                               ; preds = %11
  br label %28

16:                                               ; preds = %11
  %17 = load ptr, ptr %5, align 8, !tbaa !72
  %18 = load ptr, ptr %4, align 8, !tbaa !60
  %19 = getelementptr inbounds nuw %struct.Ivy_FraigMan_t_, ptr %18, i32 0, i32 15
  %20 = load i32, ptr %19, align 8, !tbaa !204
  %21 = add nsw i32 %20, 1
  store i32 %21, ptr %19, align 8, !tbaa !204
  call void @Ivy_ObjSetSatNum(ptr noundef %17, i32 noundef %20)
  %22 = load ptr, ptr %5, align 8, !tbaa !72
  %23 = call i32 @Ivy_ObjIsNode(ptr noundef %22)
  %24 = icmp ne i32 %23, 0
  br i1 %24, label %25, label %28

25:                                               ; preds = %16
  %26 = load ptr, ptr %6, align 8, !tbaa !130
  %27 = load ptr, ptr %5, align 8, !tbaa !72
  call void @Vec_PtrPush(ptr noundef %26, ptr noundef %27)
  br label %28

28:                                               ; preds = %10, %15, %25, %16
  ret void
}