; Function Attrs: mustprogress nounwind willreturn uwtable
define void @Ivy_FraigObjAddToFrontier(ptr noundef captures(none) %0, ptr noundef %1, ptr noundef captures(none) %2) local_unnamed_addr #16 {
  %4 = getelementptr i8, ptr %1, i64 40
  %.val9 = load ptr, ptr %4, align 8, !tbaa !126
  %5 = ptrtoint ptr %.val9 to i64
  %6 = and i64 %5, 4294967295
  %.not = icmp eq i64 %6, 0
  br i1 %.not, label %7, label %49

7:                                                ; preds = %3
  %.val10 = load i32, ptr %1, align 8, !tbaa !121
  %.not11 = icmp eq i32 %.val10, 0
  br i1 %.not11, label %49, label %8

8:                                                ; preds = %7
  %9 = getelementptr inbounds nuw i8, ptr %0, i64 152
  %10 = load i32, ptr %9, align 8, !tbaa !131
  %11 = add nsw i32 %10, 1
  store i32 %11, ptr %9, align 8, !tbaa !131
  %12 = sext i32 %10 to i64
  %13 = inttoptr i64 %12 to ptr
  store ptr %13, ptr %4, align 8, !tbaa !126
  %14 = getelementptr i8, ptr %1, i64 8
  %.val = load i32, ptr %14, align 8
  %15 = and i32 %.val, 15
  %16 = add nsw i32 %15, -7
  %narrow.i = icmp ult i32 %16, -2
  br i1 %narrow.i, label %49, label %17

17:                                               ; preds = %8
  %18 = getelementptr inbounds nuw i8, ptr %2, i64 4
  %19 = load i32, ptr %18, align 4, !tbaa !47
  %20 = load i32, ptr %2, align 8, !tbaa !87
  %21 = icmp eq i32 %19, %20
  br i1 %21, label %22, label %.Vec_PtrGrow.exit11_crit_edge.i

.Vec_PtrGrow.exit11_crit_edge.i:                  ; preds = %17
  %.phi.trans.insert.i = getelementptr inbounds nuw i8, ptr %2, i64 8
  %.pre.i = load ptr, ptr %.phi.trans.insert.i, align 8, !tbaa !49
  br label %Vec_PtrPush.exit

22:                                               ; preds = %17
  %23 = icmp slt i32 %19, 16
  br i1 %23, label %24, label %32

24:                                               ; preds = %22
  %25 = getelementptr inbounds nuw i8, ptr %2, i64 8
  %26 = load ptr, ptr %25, align 8, !tbaa !49
  %.not9.i.i = icmp eq ptr %26, null
  br i1 %.not9.i.i, label %29, label %27

27:                                               ; preds = %24
  %28 = tail call dereferenceable_or_null(128) ptr @realloc(ptr noundef nonnull %26, i64 noundef 128) #29
  br label %Vec_PtrGrow.exit.i

29:                                               ; preds = %24
  %30 = tail call noalias dereferenceable_or_null(128) ptr @malloc(i64 noundef 128) #27
  br label %Vec_PtrGrow.exit.i

Vec_PtrGrow.exit.i:                               ; preds = %29, %27
  %31 = phi ptr [ %28, %27 ], [ %30, %29 ]
  store ptr %31, ptr %25, align 8, !tbaa !49
  store i32 16, ptr %2, align 8, !tbaa !87
  br label %Vec_PtrPush.exit

32:                                               ; preds = %22
  %33 = shl nuw nsw i32 %19, 1
  %34 = getelementptr inbounds nuw i8, ptr %2, i64 8
  %35 = load ptr, ptr %34, align 8, !tbaa !49
  %.not9.i10.i = icmp eq ptr %35, null
  %36 = zext nneg i32 %33 to i64
  %37 = shl nuw nsw i64 %36, 3
  br i1 %.not9.i10.i, label %40, label %38

38:                                               ; preds = %32
  %39 = tail call ptr @realloc(ptr noundef nonnull %35, i64 noundef %37) #29
  br label %42

40:                                               ; preds = %32
  %41 = tail call noalias ptr @malloc(i64 noundef %37) #27
  br label %42

42:                                               ; preds = %40, %38
  %43 = phi ptr [ %39, %38 ], [ %41, %40 ]
  store ptr %43, ptr %34, align 8, !tbaa !49
  store i32 %33, ptr %2, align 8, !tbaa !87
  br label %Vec_PtrPush.exit

Vec_PtrPush.exit:                                 ; preds = %.Vec_PtrGrow.exit11_crit_edge.i, %Vec_PtrGrow.exit.i, %42
  %44 = phi ptr [ %.pre.i, %.Vec_PtrGrow.exit11_crit_edge.i ], [ %43, %42 ], [ %31, %Vec_PtrGrow.exit.i ]
  %45 = load i32, ptr %18, align 4, !tbaa !47
  %46 = add nsw i32 %45, 1
  store i32 %46, ptr %18, align 4, !tbaa !47
  %47 = sext i32 %45 to i64
  %48 = getelementptr inbounds ptr, ptr %44, i64 %47
  store ptr %1, ptr %48, align 8, !tbaa !51
  br label %49

49:                                               ; preds = %7, %3, %Vec_PtrPush.exit, %8
  ret void
}